target datalayout = "e-m:e-p270:32:32-p271:32:32-p272:64:64-i64:64-i128:128-f80:128-n8:16:32:64-S128"
target triple = "x86_64-pc-linux-gnu"

%struct.Float4X4 = type { %union.anon }
%union.anon = type { %struct.anon }
%struct.anon = type { float, float, float, float, float, float, float, float, float, float, float, float, float, float, float, float }
%struct.SDL_Rect = type { i32, i32, i32, i32 }
%struct.VULKAN_RenderData = type { ptr, ptr, i8, ptr, i8, ptr, %struct.VkPhysicalDeviceProperties, %struct.VkPhysicalDeviceMemoryProperties, %struct.VkPhysicalDeviceFeatures, ptr, ptr, ptr, i8, i32, i32, ptr, ptr, ptr, i32, ptr, ptr, %struct.VkSurfaceCapabilitiesKHR, ptr, i8, i32, i32, ptr, [2 x ptr], ptr, [3 x ptr], [3 x ptr], ptr, ptr, [256 x %struct.VULKAN_Buffer], %struct.VULKAN_VertexShaderConstants, ptr, ptr, ptr, ptr, i32, i32, [8 x ptr], ptr, ptr, i32, i32, i32, ptr, ptr, i8, i8, i8, i32, i32, i32, %struct.VkSurfaceFormatKHR, %struct.VkExtent2D, i32, i32, ptr, ptr, ptr, ptr, ptr, ptr, i32, ptr, ptr, i32, i32, ptr, i32, i32, ptr, i8, i8, %struct.SDL_Rect, %struct.SDL_Rect, i32, i8, %struct.Float4X4, %struct.VkComponentMapping, i32, i8 }
%struct.VkPhysicalDeviceProperties = type { i32, i32, i32, i32, i32, [256 x i8], [16 x i8], %struct.VkPhysicalDeviceLimits, %struct.VkPhysicalDeviceSparseProperties }
%struct.VkPhysicalDeviceLimits = type { i32, i32, i32, i32, i32, i32, i32, i32, i32, i32, i32, i64, i64, i32, i32, i32, i32, i32, i32, i32, i32, i32, i32, i32, i32, i32, i32, i32, i32, i32, i32, i32, i32, i32, i32, i32, i32, i32, i32, i32, i32, i32, i32, i32, i32, i32, i32, i32, i32, i32, i32, i32, [3 x i32], i32, [3 x i32], i32, i32, i32, i32, i32, float, float, i32, [2 x i32], [2 x float], i32, i64, i64, i64, i64, i32, i32, i32, i32, float, float, i32, i32, i32, i32, i32, i32, i32, i32, i32, i32, i32, i32, i32, i32, i32, i32, float, i32, i32, i32, i32, [2 x float], [2 x float], float, float, i32, i32, i64, i64, i64 }
%struct.VkPhysicalDeviceSparseProperties = type { i32, i32, i32, i32, i32 }
%struct.VkPhysicalDeviceMemoryProperties = type { i32, [32 x %struct.VkMemoryType], i32, [16 x %struct.VkMemoryHeap] }
%struct.VkMemoryType = type { i32, i32 }
%struct.VkMemoryHeap = type { i64, i32 }
%struct.VkPhysicalDeviceFeatures = type { i32, i32, i32, i32, i32, i32, i32, i32, i32, i32, i32, i32, i32, i32, i32, i32, i32, i32, i32, i32, i32, i32, i32, i32, i32, i32, i32, i32, i32, i32, i32, i32, i32, i32, i32, i32, i32, i32, i32, i32, i32, i32, i32, i32, i32, i32, i32, i32, i32, i32, i32, i32, i32, i32, i32 }
%struct.VkSurfaceCapabilitiesKHR = type { i32, i32, %struct.VkExtent2D, %struct.VkExtent2D, %struct.VkExtent2D, i32, i32, i32, i32, i32 }
%struct.VULKAN_Buffer = type { ptr, ptr, i64, ptr }
%struct.VULKAN_VertexShaderConstants = type { %struct.Float4X4, %struct.Float4X4 }
%struct.VkSurfaceFormatKHR = type { i32, i32 }
%struct.VkExtent2D = type { i32, i32 }
%struct.VkComponentMapping = type { i32, i32, i32, i32 }
%struct.VkDescriptorPoolSize = type { i32, i32 }
%struct.VkDescriptorPoolCreateInfo = type { i32, ptr, i32, i32, i32, ptr }

@.str.7 = private unnamed_addr constant [24 x i8] c"SDL_RENDER_VULKAN_DEBUG\00", align 1
@.str.8 = private unnamed_addr constant [7 x i8] c"%s: %s\00", align 1
@vkCreateDescriptorPool = internal global ptr null, align 8
@.str.37 = private unnamed_addr constant [24 x i8] c"vkCreateDescrptorPool()\00", align 1

; Function Attrs: nounwind uwtable
define internal ptr @VULKAN_AllocateDescriptorPool(ptr noundef %0) #0 {
  %2 = alloca ptr, align 8
  %3 = alloca ptr, align 8
  %4 = alloca ptr, align 8
  %5 = alloca [3 x %struct.VkDescriptorPoolSize], align 16
  %6 = alloca i32, align 4
  %7 = alloca %struct.VkDescriptorPoolCreateInfo, align 8
  %8 = alloca i32, align 4
  store ptr %0, ptr %3, align 8
  call void @llvm.lifetime.start.p0(i64 8, ptr %4) #6
  store ptr null, ptr %4, align 8
  call void @llvm.lifetime.start.p0(i64 24, ptr %5) #6
  call void @llvm.lifetime.start.p0(i64 4, ptr %6) #6
  %9 = getelementptr inbounds [3 x %struct.VkDescriptorPoolSize], ptr %5, i64 0, i64 0
  %10 = getelementptr inbounds nuw %struct.VkDescriptorPoolSize, ptr %9, i32 0, i32 1
  store i32 4096, ptr %10, align 4
  %11 = getelementptr inbounds [3 x %struct.VkDescriptorPoolSize], ptr %5, i64 0, i64 0
  %12 = getelementptr inbounds nuw %struct.VkDescriptorPoolSize, ptr %11, i32 0, i32 0
  store i32 0, ptr %12, align 16
  %13 = getelementptr inbounds [3 x %struct.VkDescriptorPoolSize], ptr %5, i64 0, i64 1
  %14 = getelementptr inbounds nuw %struct.VkDescriptorPoolSize, ptr %13, i32 0, i32 1
  store i32 4096, ptr %14, align 4
  %15 = getelementptr inbounds [3 x %struct.VkDescriptorPoolSize], ptr %5, i64 0, i64 1
  %16 = getelementptr inbounds nuw %struct.VkDescriptorPoolSize, ptr %15, i32 0, i32 0
  store i32 1, ptr %16, align 8
  %17 = getelementptr inbounds [3 x %struct.VkDescriptorPoolSize], ptr %5, i64 0, i64 2
  %18 = getelementptr inbounds nuw %struct.VkDescriptorPoolSize, ptr %17, i32 0, i32 1
  store i32 4096, ptr %18, align 4
  %19 = getelementptr inbounds [3 x %struct.VkDescriptorPoolSize], ptr %5, i64 0, i64 2
  %20 = getelementptr inbounds nuw %struct.VkDescriptorPoolSize, ptr %19, i32 0, i32 0
  store i32 6, ptr %20, align 16
  call void @llvm.lifetime.start.p0(i64 40, ptr %7) #6
  call void @llvm.memset.p0.i64(ptr align 8 %7, i8 0, i64 40, i1 false)
  %21 = getelementptr inbounds nuw %struct.VkDescriptorPoolCreateInfo, ptr %7, i32 0, i32 0
  store i32 33, ptr %21, align 8
  %22 = getelementptr inbounds nuw %struct.VkDescriptorPoolCreateInfo, ptr %7, i32 0, i32 4
  store i32 3, ptr %22, align 8
  %23 = getelementptr inbounds [3 x %struct.VkDescriptorPoolSize], ptr %5, i64 0, i64 0
  %24 = getelementptr inbounds nuw %struct.VkDescriptorPoolCreateInfo, ptr %7, i32 0, i32 5
  store ptr %23, ptr %24, align 8
  %25 = getelementptr inbounds nuw %struct.VkDescriptorPoolCreateInfo, ptr %7, i32 0, i32 3
  store i32 4096, ptr %25, align 4
  %26 = load ptr, ptr @vkCreateDescriptorPool, align 8
  %27 = load ptr, ptr %3, align 8
  %28 = getelementptr inbounds nuw %struct.VULKAN_RenderData, ptr %27, i32 0, i32 11
  %29 = load ptr, ptr %28, align 8
  %30 = call i32 %26(ptr noundef %29, ptr noundef %7, ptr noundef null, ptr noundef %4)
  store i32 %30, ptr %6, align 4
  %31 = load i32, ptr %6, align 4
  %32 = icmp ne i32 %31, 0
  br i1 %32, label %33, label %42

33:                                               ; preds = %1
  %34 = call zeroext i1 @SDL_GetHintBoolean_REAL(ptr noundef @.str.7, i1 noundef zeroext false)
  br i1 %34, label %35, label %38

35:                                               ; preds = %33
  %36 = load i32, ptr %6, align 4
  %37 = call ptr @SDL_Vulkan_GetResultString(i32 noundef %36)
  call void (i32, ptr, ...) @SDL_LogError_REAL(i32 noundef 6, ptr noundef @.str.8, ptr noundef @.str.37, ptr noundef %37)
  call void @llvm.debugtrap()
  br label %38

38:                                               ; preds = %35, %33
  %39 = load i32, ptr %6, align 4
  %40 = call ptr @SDL_Vulkan_GetResultString(i32 noundef %39)
  %41 = call zeroext i1 (ptr, ...) @SDL_SetError_REAL(ptr noundef @.str.8, ptr noundef @.str.37, ptr noundef %40)
  store ptr null, ptr %2, align 8
  store i32 1, ptr %8, align 4
  br label %44

42:                                               ; preds = %1
  %43 = load ptr, ptr %4, align 8
  store ptr %43, ptr %2, align 8
  store i32 1, ptr %8, align 4
  br label %44

44:                                               ; preds = %42, %38
  call void @llvm.lifetime.end.p0(i64 40, ptr %7) #6
  call void @llvm.lifetime.end.p0(i64 4, ptr %6) #6
  call void @llvm.lifetime.end.p0(i64 24, ptr %5) #6
  call void @llvm.lifetime.end.p0(i64 8, ptr %4) #6
  %45 = load ptr, ptr %2, align 8
  ret ptr %45
}