; Function Attrs: nounwind uwtable
define internal fastcc ptr @VULKAN_AllocateDescriptorPool(ptr %.1632.val) unnamed_addr #0 {
  %1 = alloca ptr, align 8
  %2 = alloca [3 x %struct.VkDescriptorPoolSize], align 16
  %3 = alloca %struct.VkDescriptorPoolCreateInfo, align 8
  call void @llvm.lifetime.start.p0(i64 8, ptr nonnull %1) #8
  store ptr null, ptr %1, align 8
  call void @llvm.lifetime.start.p0(i64 24, ptr nonnull %2) #8
  %4 = getelementptr inbounds nuw i8, ptr %2, i64 4
  store i32 4096, ptr %4, align 4
  store i32 0, ptr %2, align 16
  %5 = getelementptr inbounds nuw i8, ptr %2, i64 8
  %6 = getelementptr inbounds nuw i8, ptr %2, i64 12
  store i32 4096, ptr %6, align 4
  store i32 1, ptr %5, align 8
  %7 = getelementptr inbounds nuw i8, ptr %2, i64 16
  %8 = getelementptr inbounds nuw i8, ptr %2, i64 20
  store i32 4096, ptr %8, align 4
  store i32 6, ptr %7, align 16
  call void @llvm.lifetime.start.p0(i64 40, ptr nonnull %3) #8
  call void @llvm.memset.p0.i64(ptr noundef nonnull align 8 dereferenceable(40) %3, i8 0, i64 32, i1 false)
  store i32 33, ptr %3, align 8
  %9 = getelementptr inbounds nuw i8, ptr %3, i64 24
  store i32 3, ptr %9, align 8
  %10 = getelementptr inbounds nuw i8, ptr %3, i64 32
  store ptr %2, ptr %10, align 8
  %11 = getelementptr inbounds nuw i8, ptr %3, i64 20
  store i32 4096, ptr %11, align 4
  %12 = load ptr, ptr @vkCreateDescriptorPool, align 8
  %13 = call i32 %12(ptr noundef %.1632.val, ptr noundef nonnull %3, ptr noundef null, ptr noundef nonnull %1) #8
  %.not = icmp eq i32 %13, 0
  br i1 %.not, label %21, label %14

14:                                               ; preds = %0
  %15 = call zeroext i1 @SDL_GetHintBoolean_REAL(ptr noundef nonnull @.str.7, i1 noundef zeroext false) #8
  br i1 %15, label %16, label %18

16:                                               ; preds = %14
  %17 = call ptr @SDL_Vulkan_GetResultString(i32 noundef %13) #8
  call void (i32, ptr, ...) @SDL_LogError_REAL(i32 noundef 6, ptr noundef nonnull @.str.8, ptr noundef nonnull @.str.37, ptr noundef %17) #8
  call void @llvm.debugtrap()
  br label %18

18:                                               ; preds = %16, %14
  %19 = call ptr @SDL_Vulkan_GetResultString(i32 noundef %13) #8
  %20 = call zeroext i1 (ptr, ...) @SDL_SetError_REAL(ptr noundef nonnull @.str.8, ptr noundef nonnull @.str.37, ptr noundef %19) #8
  br label %23

21:                                               ; preds = %0
  %22 = load ptr, ptr %1, align 8
  br label %23

23:                                               ; preds = %21, %18
  %.0 = phi ptr [ null, %18 ], [ %22, %21 ]
  call void @llvm.lifetime.end.p0(i64 40, ptr nonnull %3) #8
  call void @llvm.lifetime.end.p0(i64 24, ptr nonnull %2) #8
  call void @llvm.lifetime.end.p0(i64 8, ptr nonnull %1) #8
  ret ptr %.0
}